target datalayout = "e-m:e-p270:32:32-p271:32:32-p272:64:64-i64:64-i128:128-f80:128-n8:16:32:64-S128"
target triple = "x86_64-pc-linux-gnu"

%"class.vcg::Point3" = type { [3 x float] }
%"class.vcg::TrackMode" = type { ptr }
%"class.std::vector" = type { %"struct.std::_Vector_base" }
%"struct.std::_Vector_base" = type { %"struct.std::_Vector_base<vcg::Point3<float>, std::allocator<vcg::Point3<float>>>::_Vector_impl" }
%"struct.std::_Vector_base<vcg::Point3<float>, std::allocator<vcg::Point3<float>>>::_Vector_impl" = type { %"struct.std::_Vector_base<vcg::Point3<float>, std::allocator<vcg::Point3<float>>>::_Vector_impl_data" }
%"struct.std::_Vector_base<vcg::Point3<float>, std::allocator<vcg::Point3<float>>>::_Vector_impl_data" = type { ptr, ptr, ptr }
%"class.vcg::PathMode" = type { %"class.vcg::TrackMode", %"class.std::vector", i8, float, float, float, float, %"class.vcg::Point3", float, %"class.vcg::Point3" }

; Function Attrs: mustprogress nounwind uwtable
define linkonce_odr noundef float @_ZNK3vcg6Point3IfEmlERKS1_(ptr noundef nonnull align 4 dereferenceable(12) %0, ptr noundef nonnull align 4 dereferenceable(12) %1) #0 comdat align 2 {
  %3 = alloca ptr, align 8
  %4 = alloca ptr, align 8
  store ptr %0, ptr %3, align 8
  store ptr %1, ptr %4, align 8
  %5 = load ptr, ptr %3, align 8
  %6 = getelementptr inbounds %"class.vcg::Point3", ptr %5, i32 0, i32 0
  %7 = getelementptr inbounds [3 x float], ptr %6, i64 0, i64 0
  %8 = load float, ptr %7, align 4
  %9 = load ptr, ptr %4, align 8
  %10 = getelementptr inbounds %"class.vcg::Point3", ptr %9, i32 0, i32 0
  %11 = getelementptr inbounds [3 x float], ptr %10, i64 0, i64 0
  %12 = load float, ptr %11, align 4
  %13 = getelementptr inbounds %"class.vcg::Point3", ptr %5, i32 0, i32 0
  %14 = getelementptr inbounds [3 x float], ptr %13, i64 0, i64 1
  %15 = load float, ptr %14, align 4
  %16 = load ptr, ptr %4, align 8
  %17 = getelementptr inbounds %"class.vcg::Point3", ptr %16, i32 0, i32 0
  %18 = getelementptr inbounds [3 x float], ptr %17, i64 0, i64 1
  %19 = load float, ptr %18, align 4
  %20 = fmul float %15, %19
  %21 = call float @llvm.fmuladd.f32(float %8, float %12, float %20)
  %22 = getelementptr inbounds %"class.vcg::Point3", ptr %5, i32 0, i32 0
  %23 = getelementptr inbounds [3 x float], ptr %22, i64 0, i64 2
  %24 = load float, ptr %23, align 4
  %25 = load ptr, ptr %4, align 8
  %26 = getelementptr inbounds %"class.vcg::Point3", ptr %25, i32 0, i32 0
  %27 = getelementptr inbounds [3 x float], ptr %26, i64 0, i64 2
  %28 = load float, ptr %27, align 4
  %29 = call float @llvm.fmuladd.f32(float %24, float %28, float %21)
  ret float %29
}

; Function Attrs: mustprogress nounwind uwtable
define linkonce_odr noundef float @_ZN3vcg4math4SqrtEf(float noundef %0) #0 comdat {
  %2 = alloca float, align 4
  store float %0, ptr %2, align 4
  %3 = load float, ptr %2, align 4
  %4 = call float @sqrtf(float noundef %3) #7
  ret float %4
}

; Function Attrs: mustprogress uwtable
define linkonce_odr noundef float @_ZNK3vcg6Point3IfE3dotERKS1_(ptr noundef nonnull align 4 dereferenceable(12) %0, ptr noundef nonnull align 4 dereferenceable(12) %1) #3 comdat align 2 {
  %3 = alloca ptr, align 8
  %4 = alloca ptr, align 8
  store ptr %0, ptr %3, align 8
  store ptr %1, ptr %4, align 8
  %5 = load ptr, ptr %3, align 8
  %6 = load ptr, ptr %4, align 8
  %7 = call noundef float @_ZNK3vcg6Point3IfEmlERKS1_(ptr noundef nonnull align 4 dereferenceable(12) %5, ptr noundef nonnull align 4 dereferenceable(12) %6)
  ret float %7
}

; Function Attrs: mustprogress uwtable
define linkonce_odr noundef nonnull align 4 dereferenceable(12) ptr @_ZN3vcg6Point3IfE9NormalizeEv(ptr noundef nonnull align 4 dereferenceable(12) %0) #3 comdat align 2 {
  %2 = alloca ptr, align 8
  %3 = alloca float, align 4
  store ptr %0, ptr %2, align 8
  %4 = load ptr, ptr %2, align 8
  %5 = getelementptr inbounds %"class.vcg::Point3", ptr %4, i32 0, i32 0
  %6 = getelementptr inbounds [3 x float], ptr %5, i64 0, i64 0
  %7 = load float, ptr %6, align 4
  %8 = getelementptr inbounds %"class.vcg::Point3", ptr %4, i32 0, i32 0
  %9 = getelementptr inbounds [3 x float], ptr %8, i64 0, i64 0
  %10 = load float, ptr %9, align 4
  %11 = getelementptr inbounds %"class.vcg::Point3", ptr %4, i32 0, i32 0
  %12 = getelementptr inbounds [3 x float], ptr %11, i64 0, i64 1
  %13 = load float, ptr %12, align 4
  %14 = getelementptr inbounds %"class.vcg::Point3", ptr %4, i32 0, i32 0
  %15 = getelementptr inbounds [3 x float], ptr %14, i64 0, i64 1
  %16 = load float, ptr %15, align 4
  %17 = fmul float %13, %16
  %18 = call float @llvm.fmuladd.f32(float %7, float %10, float %17)
  %19 = getelementptr inbounds %"class.vcg::Point3", ptr %4, i32 0, i32 0
  %20 = getelementptr inbounds [3 x float], ptr %19, i64 0, i64 2
  %21 = load float, ptr %20, align 4
  %22 = getelementptr inbounds %"class.vcg::Point3", ptr %4, i32 0, i32 0
  %23 = getelementptr inbounds [3 x float], ptr %22, i64 0, i64 2
  %24 = load float, ptr %23, align 4
  %25 = call float @llvm.fmuladd.f32(float %21, float %24, float %18)
  %26 = call noundef float @_ZN3vcg4math4SqrtEf(float noundef %25)
  store float %26, ptr %3, align 4
  %27 = load float, ptr %3, align 4
  %28 = fcmp ogt float %27, 0.000000e+00
  br i1 %28, label %29, label %45

29:                                               ; preds = %1
  %30 = load float, ptr %3, align 4
  %31 = getelementptr inbounds %"class.vcg::Point3", ptr %4, i32 0, i32 0
  %32 = getelementptr inbounds [3 x float], ptr %31, i64 0, i64 0
  %33 = load float, ptr %32, align 4
  %34 = fdiv float %33, %30
  store float %34, ptr %32, align 4
  %35 = load float, ptr %3, align 4
  %36 = getelementptr inbounds %"class.vcg::Point3", ptr %4, i32 0, i32 0
  %37 = getelementptr inbounds [3 x float], ptr %36, i64 0, i64 1
  %38 = load float, ptr %37, align 4
  %39 = fdiv float %38, %35
  store float %39, ptr %37, align 4
  %40 = load float, ptr %3, align 4
  %41 = getelementptr inbounds %"class.vcg::Point3", ptr %4, i32 0, i32 0
  %42 = getelementptr inbounds [3 x float], ptr %41, i64 0, i64 2
  %43 = load float, ptr %42, align 4
  %44 = fdiv float %43, %40
  store float %44, ptr %42, align 4
  br label %45

45:                                               ; preds = %29, %1
  ret ptr %4
}

; Function Attrs: mustprogress nounwind uwtable
define linkonce_odr void @_ZN3vcg6Point3IfEC2Efff(ptr noundef nonnull align 4 dereferenceable(12) %0, float noundef %1, float noundef %2, float noundef %3) unnamed_addr #0 comdat align 2 {
  %5 = alloca ptr, align 8
  %6 = alloca float, align 4
  %7 = alloca float, align 4
  %8 = alloca float, align 4
  store ptr %0, ptr %5, align 8
  store float %1, ptr %6, align 4
  store float %2, ptr %7, align 4
  store float %3, ptr %8, align 4
  %9 = load ptr, ptr %5, align 8
  %10 = load float, ptr %6, align 4
  %11 = getelementptr inbounds %"class.vcg::Point3", ptr %9, i32 0, i32 0
  %12 = getelementptr inbounds [3 x float], ptr %11, i64 0, i64 0
  store float %10, ptr %12, align 4
  %13 = load float, ptr %7, align 4
  %14 = getelementptr inbounds %"class.vcg::Point3", ptr %9, i32 0, i32 0
  %15 = getelementptr inbounds [3 x float], ptr %14, i64 0, i64 1
  store float %13, ptr %15, align 4
  %16 = load float, ptr %8, align 4
  %17 = getelementptr inbounds %"class.vcg::Point3", ptr %9, i32 0, i32 0
  %18 = getelementptr inbounds [3 x float], ptr %17, i64 0, i64 2
  store float %16, ptr %18, align 4
  ret void
}

; Function Attrs: mustprogress nounwind uwtable
define linkonce_odr noundef float @_ZNK3vcg6Point3IfE4NormEv(ptr noundef nonnull align 4 dereferenceable(12) %0) #0 comdat align 2 {
  %2 = alloca ptr, align 8
  store ptr %0, ptr %2, align 8
  %3 = load ptr, ptr %2, align 8
  %4 = getelementptr inbounds %"class.vcg::Point3", ptr %3, i32 0, i32 0
  %5 = getelementptr inbounds [3 x float], ptr %4, i64 0, i64 0
  %6 = load float, ptr %5, align 4
  %7 = getelementptr inbounds %"class.vcg::Point3", ptr %3, i32 0, i32 0
  %8 = getelementptr inbounds [3 x float], ptr %7, i64 0, i64 0
  %9 = load float, ptr %8, align 4
  %10 = getelementptr inbounds %"class.vcg::Point3", ptr %3, i32 0, i32 0
  %11 = getelementptr inbounds [3 x float], ptr %10, i64 0, i64 1
  %12 = load float, ptr %11, align 4
  %13 = getelementptr inbounds %"class.vcg::Point3", ptr %3, i32 0, i32 0
  %14 = getelementptr inbounds [3 x float], ptr %13, i64 0, i64 1
  %15 = load float, ptr %14, align 4
  %16 = fmul float %12, %15
  %17 = call float @llvm.fmuladd.f32(float %6, float %9, float %16)
  %18 = getelementptr inbounds %"class.vcg::Point3", ptr %3, i32 0, i32 0
  %19 = getelementptr inbounds [3 x float], ptr %18, i64 0, i64 2
  %20 = load float, ptr %19, align 4
  %21 = getelementptr inbounds %"class.vcg::Point3", ptr %3, i32 0, i32 0
  %22 = getelementptr inbounds [3 x float], ptr %21, i64 0, i64 2
  %23 = load float, ptr %22, align 4
  %24 = call float @llvm.fmuladd.f32(float %20, float %23, float %17)
  %25 = call noundef float @_ZN3vcg4math4SqrtEf(float noundef %24)
  ret float %25
}

; Function Attrs: mustprogress uwtable
define linkonce_odr { <2 x float>, float } @_ZNK3vcg6Point3IfEmiERKS1_(ptr noundef nonnull align 4 dereferenceable(12) %0, ptr noundef nonnull align 4 dereferenceable(12) %1) #3 comdat align 2 {
  %3 = alloca %"class.vcg::Point3", align 4
  %4 = alloca ptr, align 8
  %5 = alloca ptr, align 8
  %6 = alloca { <2 x float>, float }, align 8
  store ptr %0, ptr %4, align 8
  store ptr %1, ptr %5, align 8
  %7 = load ptr, ptr %4, align 8
  %8 = getelementptr inbounds %"class.vcg::Point3", ptr %7, i32 0, i32 0
  %9 = getelementptr inbounds [3 x float], ptr %8, i64 0, i64 0
  %10 = load float, ptr %9, align 4
  %11 = load ptr, ptr %5, align 8
  %12 = getelementptr inbounds %"class.vcg::Point3", ptr %11, i32 0, i32 0
  %13 = getelementptr inbounds [3 x float], ptr %12, i64 0, i64 0
  %14 = load float, ptr %13, align 4
  %15 = fsub float %10, %14
  %16 = getelementptr inbounds %"class.vcg::Point3", ptr %7, i32 0, i32 0
  %17 = getelementptr inbounds [3 x float], ptr %16, i64 0, i64 1
  %18 = load float, ptr %17, align 4
  %19 = load ptr, ptr %5, align 8
  %20 = getelementptr inbounds %"class.vcg::Point3", ptr %19, i32 0, i32 0
  %21 = getelementptr inbounds [3 x float], ptr %20, i64 0, i64 1
  %22 = load float, ptr %21, align 4
  %23 = fsub float %18, %22
  %24 = getelementptr inbounds %"class.vcg::Point3", ptr %7, i32 0, i32 0
  %25 = getelementptr inbounds [3 x float], ptr %24, i64 0, i64 2
  %26 = load float, ptr %25, align 4
  %27 = load ptr, ptr %5, align 8
  %28 = getelementptr inbounds %"class.vcg::Point3", ptr %27, i32 0, i32 0
  %29 = getelementptr inbounds [3 x float], ptr %28, i64 0, i64 2
  %30 = load float, ptr %29, align 4
  %31 = fsub float %26, %30
  call void @_ZN3vcg6Point3IfEC2Efff(ptr noundef nonnull align 4 dereferenceable(12) %3, float noundef %15, float noundef %23, float noundef %31)
  %32 = getelementptr inbounds %"class.vcg::Point3", ptr %3, i32 0, i32 0
  call void @llvm.memcpy.p0.p0.i64(ptr align 8 %6, ptr align 4 %32, i64 12, i1 false)
  %33 = load { <2 x float>, float }, ptr %6, align 8
  ret { <2 x float>, float } %33
}

; Function Attrs: mustprogress uwtable
define noundef i32 @_ZN3vcg8PathMode5VerseENS_6Point3IfEES2_S2_S2_(ptr noundef nonnull align 8 dereferenceable(80) %0, <2 x float> %1, float %2, <2 x float> %3, float %4, <2 x float> %5, float %6, <2 x float> %7, float %8) #2 align 2 {
  %10 = alloca i32, align 4
  %11 = alloca %"class.vcg::Point3", align 4
  %12 = alloca { <2 x float>, float }, align 4
  %13 = alloca %"class.vcg::Point3", align 4
  %14 = alloca { <2 x float>, float }, align 4
  %15 = alloca %"class.vcg::Point3", align 4
  %16 = alloca { <2 x float>, float }, align 4
  %17 = alloca %"class.vcg::Point3", align 4
  %18 = alloca { <2 x float>, float }, align 4
  %19 = alloca ptr, align 8
  %20 = alloca %"class.vcg::Point3", align 4
  %21 = alloca { <2 x float>, float }, align 8
  %22 = alloca %"class.vcg::Point3", align 4
  %23 = alloca { <2 x float>, float }, align 8
  %24 = alloca %"class.vcg::Point3", align 4
  %25 = alloca { <2 x float>, float }, align 8
  %26 = alloca float, align 4
  %27 = alloca %"class.vcg::Point3", align 4
  %28 = alloca %"class.vcg::Point3", align 4
  %29 = alloca %"class.vcg::Point3", align 4
  %30 = alloca float, align 4
  %31 = alloca float, align 4
  %32 = getelementptr inbounds { <2 x float>, float }, ptr %12, i32 0, i32 0
  store <2 x float> %1, ptr %32, align 4
  %33 = getelementptr inbounds { <2 x float>, float }, ptr %12, i32 0, i32 1
  store float %2, ptr %33, align 4
  call void @llvm.memcpy.p0.p0.i64(ptr align 4 %11, ptr align 4 %12, i64 12, i1 false)
  %34 = getelementptr inbounds { <2 x float>, float }, ptr %14, i32 0, i32 0
  store <2 x float> %3, ptr %34, align 4
  %35 = getelementptr inbounds { <2 x float>, float }, ptr %14, i32 0, i32 1
  store float %4, ptr %35, align 4
  call void @llvm.memcpy.p0.p0.i64(ptr align 4 %13, ptr align 4 %14, i64 12, i1 false)
  %36 = getelementptr inbounds { <2 x float>, float }, ptr %16, i32 0, i32 0
  store <2 x float> %5, ptr %36, align 4
  %37 = getelementptr inbounds { <2 x float>, float }, ptr %16, i32 0, i32 1
  store float %6, ptr %37, align 4
  call void @llvm.memcpy.p0.p0.i64(ptr align 4 %15, ptr align 4 %16, i64 12, i1 false)
  %38 = getelementptr inbounds { <2 x float>, float }, ptr %18, i32 0, i32 0
  store <2 x float> %7, ptr %38, align 4
  %39 = getelementptr inbounds { <2 x float>, float }, ptr %18, i32 0, i32 1
  store float %8, ptr %39, align 4
  call void @llvm.memcpy.p0.p0.i64(ptr align 4 %17, ptr align 4 %18, i64 12, i1 false)
  store ptr %0, ptr %19, align 8
  %40 = load ptr, ptr %19, align 8
  %41 = call { <2 x float>, float } @_ZNK3vcg6Point3IfEmiERKS1_(ptr noundef nonnull align 4 dereferenceable(12) %11, ptr noundef nonnull align 4 dereferenceable(12) %13)
  %42 = getelementptr inbounds %"class.vcg::Point3", ptr %20, i32 0, i32 0
  store { <2 x float>, float } %41, ptr %21, align 8
  call void @llvm.memcpy.p0.p0.i64(ptr align 4 %42, ptr align 8 %21, i64 12, i1 false)
  %43 = call { <2 x float>, float } @_ZNK3vcg6Point3IfEmiERKS1_(ptr noundef nonnull align 4 dereferenceable(12) %15, ptr noundef nonnull align 4 dereferenceable(12) %13)
  %44 = getelementptr inbounds %"class.vcg::Point3", ptr %22, i32 0, i32 0
  store { <2 x float>, float } %43, ptr %23, align 8
  call void @llvm.memcpy.p0.p0.i64(ptr align 4 %44, ptr align 8 %23, i64 12, i1 false)
  %45 = call { <2 x float>, float } @_ZNK3vcg6Point3IfEmiERKS1_(ptr noundef nonnull align 4 dereferenceable(12) %17, ptr noundef nonnull align 4 dereferenceable(12) %13)
  %46 = getelementptr inbounds %"class.vcg::Point3", ptr %24, i32 0, i32 0
  store { <2 x float>, float } %45, ptr %25, align 8
  call void @llvm.memcpy.p0.p0.i64(ptr align 4 %46, ptr align 8 %25, i64 12, i1 false)
  %47 = getelementptr inbounds %"class.vcg::PathMode", ptr %40, i32 0, i32 6
  %48 = load float, ptr %47, align 8
  %49 = fmul float %48, 0x3F747AE140000000
  store float %49, ptr %26, align 4
  %50 = call noundef float @_ZNK3vcg6Point3IfE4NormEv(ptr noundef nonnull align 4 dereferenceable(12) %20)
  %51 = load float, ptr %26, align 4
  %52 = fcmp olt float %50, %51
  br i1 %52, label %53, label %54

53:                                               ; preds = %9
  call void @_ZN3vcg6Point3IfEC2Efff(ptr noundef nonnull align 4 dereferenceable(12) %27, float noundef 0.000000e+00, float noundef 0.000000e+00, float noundef 0.000000e+00)
  call void @llvm.memcpy.p0.p0.i64(ptr align 4 %20, ptr align 4 %27, i64 12, i1 false)
  br label %54

54:                                               ; preds = %53, %9
  %55 = call noundef float @_ZNK3vcg6Point3IfE4NormEv(ptr noundef nonnull align 4 dereferenceable(12) %22)
  %56 = load float, ptr %26, align 4
  %57 = fcmp olt float %55, %56
  br i1 %57, label %58, label %59

58:                                               ; preds = %54
  call void @_ZN3vcg6Point3IfEC2Efff(ptr noundef nonnull align 4 dereferenceable(12) %28, float noundef 0.000000e+00, float noundef 0.000000e+00, float noundef 0.000000e+00)
  call void @llvm.memcpy.p0.p0.i64(ptr align 4 %22, ptr align 4 %28, i64 12, i1 false)
  br label %59

59:                                               ; preds = %58, %54
  %60 = call noundef float @_ZNK3vcg6Point3IfE4NormEv(ptr noundef nonnull align 4 dereferenceable(12) %24)
  %61 = load float, ptr %26, align 4
  %62 = fcmp olt float %60, %61
  br i1 %62, label %63, label %64

63:                                               ; preds = %59
  call void @_ZN3vcg6Point3IfEC2Efff(ptr noundef nonnull align 4 dereferenceable(12) %29, float noundef 0.000000e+00, float noundef 0.000000e+00, float noundef 0.000000e+00)
  call void @llvm.memcpy.p0.p0.i64(ptr align 4 %24, ptr align 4 %29, i64 12, i1 false)
  br label %64

64:                                               ; preds = %63, %59
  %65 = call noundef nonnull align 4 dereferenceable(12) ptr @_ZN3vcg6Point3IfE9NormalizeEv(ptr noundef nonnull align 4 dereferenceable(12) %20)
  %66 = call noundef nonnull align 4 dereferenceable(12) ptr @_ZN3vcg6Point3IfE9NormalizeEv(ptr noundef nonnull align 4 dereferenceable(12) %22)
  %67 = call noundef nonnull align 4 dereferenceable(12) ptr @_ZN3vcg6Point3IfE9NormalizeEv(ptr noundef nonnull align 4 dereferenceable(12) %24)
  %68 = call noundef float @_ZNK3vcg6Point3IfE3dotERKS1_(ptr noundef nonnull align 4 dereferenceable(12) %22, ptr noundef nonnull align 4 dereferenceable(12) %20)
  store float %68, ptr %30, align 4
  %69 = call noundef float @_ZNK3vcg6Point3IfE3dotERKS1_(ptr noundef nonnull align 4 dereferenceable(12) %24, ptr noundef nonnull align 4 dereferenceable(12) %20)
  store float %69, ptr %31, align 4
  %70 = load float, ptr %30, align 4
  %71 = fcmp olt float %70, 0.000000e+00
  br i1 %71, label %72, label %73

72:                                               ; preds = %64
  store float 0.000000e+00, ptr %30, align 4
  br label %73

73:                                               ; preds = %72, %64
  %74 = load float, ptr %31, align 4
  %75 = fcmp olt float %74, 0.000000e+00
  br i1 %75, label %76, label %77

76:                                               ; preds = %73
  store float 0.000000e+00, ptr %31, align 4
  br label %77

77:                                               ; preds = %76, %73
  %78 = load float, ptr %30, align 4
  %79 = fcmp oeq float %78, 0.000000e+00
  br i1 %79, label %80, label %84

80:                                               ; preds = %77
  %81 = load float, ptr %31, align 4
  %82 = fcmp oeq float %81, 0.000000e+00
  br i1 %82, label %83, label %84

83:                                               ; preds = %80
  store i32 0, ptr %10, align 4
  br label %90

84:                                               ; preds = %80, %77
  %85 = load float, ptr %30, align 4
  %86 = load float, ptr %31, align 4
  %87 = fcmp ole float %85, %86
  br i1 %87, label %88, label %89

88:                                               ; preds = %84
  store i32 1, ptr %10, align 4
  br label %90

89:                                               ; preds = %84
  store i32 -1, ptr %10, align 4
  br label %90

90:                                               ; preds = %89, %88, %83
  %91 = load i32, ptr %10, align 4
  ret i32 %91
}