; Function Attrs: mustprogress nofree norecurse nosync nounwind willreturn memory(argmem: read) uwtable
define noundef i32 @_ZN3vcg8PathMode5VerseENS_6Point3IfEES2_S2_S2_(ptr nocapture noundef nonnull readonly align 8 dereferenceable(80) %0, <2 x float> %1, float %2, <2 x float> %3, float %4, <2 x float> %5, float %6, <2 x float> %7, float %8) local_unnamed_addr #19 align 2 {
_ZN3vcg6Point3IfE9NormalizeEv.exit:
  %9 = fsub <2 x float> %1, %3
  %10 = insertelement <2 x float> poison, float %6, i64 0
  %11 = insertelement <2 x float> %10, float %2, i64 1
  %12 = insertelement <2 x float> poison, float %4, i64 0
  %13 = shufflevector <2 x float> %12, <2 x float> poison, <2 x i32> zeroinitializer
  %14 = fsub <2 x float> %11, %13
  %15 = fsub <2 x float> %5, %3
  %16 = getelementptr inbounds i8, ptr %0, i64 48
  %17 = load float, ptr %16, align 8
  %18 = fmul float %17, 0x3F747AE140000000
  %19 = shufflevector <2 x float> %15, <2 x float> %9, <2 x i32> <i32 1, i32 3>
  %20 = fmul <2 x float> %19, %19
  %21 = shufflevector <2 x float> %15, <2 x float> %9, <2 x i32> <i32 0, i32 2>
  %22 = tail call <2 x float> @llvm.fmuladd.v2f32(<2 x float> %21, <2 x float> %21, <2 x float> %20)
  %23 = tail call <2 x float> @llvm.fmuladd.v2f32(<2 x float> %14, <2 x float> %14, <2 x float> %22)
  %24 = tail call <2 x float> @llvm.sqrt.v2f32(<2 x float> %23)
  %25 = insertelement <2 x float> poison, float %18, i64 0
  %26 = shufflevector <2 x float> %25, <2 x float> poison, <2 x i32> zeroinitializer
  %27 = fcmp olt <2 x float> %24, %26
  %28 = extractelement <2 x i1> %27, i64 1
  %.sroa.088.0 = select i1 %28, <2 x float> zeroinitializer, <2 x float> %9
  %29 = extractelement <2 x float> %14, i64 1
  %.sroa.13.0 = select i1 %28, float 0.000000e+00, float %29
  %30 = extractelement <2 x i1> %27, i64 0
  %.sroa.070.0 = select i1 %30, <2 x float> zeroinitializer, <2 x float> %15
  %31 = extractelement <2 x float> %14, i64 0
  %.sroa.1185.0 = select i1 %30, float 0.000000e+00, float %31
  %32 = fmul <2 x float> %.sroa.088.0, %.sroa.088.0
  %33 = extractelement <2 x float> %32, i64 1
  %34 = extractelement <2 x float> %.sroa.088.0, i64 0
  %35 = tail call float @llvm.fmuladd.f32(float %34, float %34, float %33)
  %36 = tail call float @llvm.fmuladd.f32(float %.sroa.13.0, float %.sroa.13.0, float %35)
  %sqrt.i41 = tail call float @llvm.sqrt.f32(float %36)
  %37 = fcmp ogt float %sqrt.i41, 0.000000e+00
  %38 = insertelement <2 x float> poison, float %sqrt.i41, i64 0
  %39 = shufflevector <2 x float> %38, <2 x float> poison, <2 x i32> zeroinitializer
  %40 = fdiv <2 x float> %.sroa.088.0, %39
  %41 = fdiv float %.sroa.13.0, %sqrt.i41
  %.sroa.088.1 = select i1 %37, <2 x float> %40, <2 x float> %.sroa.088.0
  %.sroa.13.1 = select i1 %37, float %41, float %.sroa.13.0
  %42 = fmul <2 x float> %.sroa.070.0, %.sroa.070.0
  %43 = extractelement <2 x float> %42, i64 1
  %44 = extractelement <2 x float> %.sroa.070.0, i64 0
  %45 = tail call float @llvm.fmuladd.f32(float %44, float %44, float %43)
  %46 = tail call float @llvm.fmuladd.f32(float %.sroa.1185.0, float %.sroa.1185.0, float %45)
  %sqrt.i42 = tail call float @llvm.sqrt.f32(float %46)
  %47 = fcmp ogt float %sqrt.i42, 0.000000e+00
  %48 = insertelement <2 x float> poison, float %sqrt.i42, i64 0
  %49 = shufflevector <2 x float> %48, <2 x float> poison, <2 x i32> zeroinitializer
  %50 = fdiv <2 x float> %.sroa.070.0, %49
  %51 = fdiv float %.sroa.1185.0, %sqrt.i42
  %.sroa.070.1 = select i1 %47, <2 x float> %50, <2 x float> %.sroa.070.0
  %.sroa.1185.1 = select i1 %47, float %51, float %.sroa.1185.0
  %52 = fsub float %8, %4
  %53 = fsub <2 x float> %7, %3
  %54 = fmul <2 x float> %53, %53
  %55 = extractelement <2 x float> %54, i64 1
  %56 = extractelement <2 x float> %53, i64 0
  %57 = tail call float @llvm.fmuladd.f32(float %56, float %56, float %55)
  %58 = tail call float @llvm.fmuladd.f32(float %52, float %52, float %57)
  %sqrt.i40 = tail call noundef float @llvm.sqrt.f32(float %58)
  %59 = fcmp olt float %sqrt.i40, %18
  %.sroa.11.0 = select i1 %59, float 0.000000e+00, float %52
  %.sroa.053.0 = select i1 %59, <2 x float> zeroinitializer, <2 x float> %53
  %.sroa.053.0.vec.extract55 = extractelement <2 x float> %.sroa.053.0, i64 0
  %.sroa.053.4.vec.extract62 = extractelement <2 x float> %.sroa.053.0, i64 1
  %60 = fmul float %.sroa.053.4.vec.extract62, %.sroa.053.4.vec.extract62
  %61 = tail call float @llvm.fmuladd.f32(float %.sroa.053.0.vec.extract55, float %.sroa.053.0.vec.extract55, float %60)
  %62 = tail call float @llvm.fmuladd.f32(float %.sroa.11.0, float %.sroa.11.0, float %61)
  %sqrt.i44 = tail call float @llvm.sqrt.f32(float %62)
  %63 = fcmp ogt float %sqrt.i44, 0.000000e+00
  %64 = fdiv float %.sroa.053.0.vec.extract55, %sqrt.i44
  %65 = fdiv float %.sroa.053.4.vec.extract62, %sqrt.i44
  %66 = fdiv float %.sroa.11.0, %sqrt.i44
  %.sroa.053.4.vec.extract65.pre-phi = select i1 %63, float %65, float %.sroa.053.4.vec.extract62
  %.sroa.053.0.vec.extract58.pre-phi = select i1 %63, float %64, float %.sroa.053.0.vec.extract55
  %.sroa.11.1 = select i1 %63, float %66, float %.sroa.11.0
  %67 = shufflevector <2 x float> %.sroa.088.1, <2 x float> poison, <2 x i32> <i32 1, i32 1>
  %68 = shufflevector <2 x float> %.sroa.070.1, <2 x float> poison, <2 x i32> <i32 1, i32 poison>
  %69 = insertelement <2 x float> %68, float %.sroa.053.4.vec.extract65.pre-phi, i64 1
  %70 = fmul <2 x float> %67, %69
  %71 = insertelement <2 x float> %.sroa.070.1, float %.sroa.053.0.vec.extract58.pre-phi, i64 1
  %72 = shufflevector <2 x float> %.sroa.088.1, <2 x float> poison, <2 x i32> zeroinitializer
  %73 = tail call <2 x float> @llvm.fmuladd.v2f32(<2 x float> %71, <2 x float> %72, <2 x float> %70)
  %74 = insertelement <2 x float> poison, float %.sroa.1185.1, i64 0
  %75 = insertelement <2 x float> %74, float %.sroa.11.1, i64 1
  %76 = insertelement <2 x float> poison, float %.sroa.13.1, i64 0
  %77 = shufflevector <2 x float> %76, <2 x float> poison, <2 x i32> zeroinitializer
  %78 = tail call <2 x float> @llvm.fmuladd.v2f32(<2 x float> %75, <2 x float> %77, <2 x float> %73)
  %79 = fcmp olt <2 x float> %78, zeroinitializer
  %80 = select <2 x i1> %79, <2 x float> zeroinitializer, <2 x float> %78
  %81 = fcmp oeq <2 x float> %80, zeroinitializer
  %shift = shufflevector <2 x i1> %81, <2 x i1> poison, <2 x i32> <i32 1, i32 poison>
  %82 = and <2 x i1> %81, %shift
  %or.cond = extractelement <2 x i1> %82, i64 0
  %83 = extractelement <2 x float> %80, i64 0
  %84 = extractelement <2 x float> %80, i64 1
  %85 = fcmp ugt float %83, %84
  %. = select i1 %85, i32 -1, i32 1
  %.028 = select i1 %or.cond, i32 0, i32 %.
  ret i32 %.028
}